target datalayout = "e-m:e-p270:32:32-p271:32:32-p272:64:64-i64:64-i128:128-f80:128-n8:16:32:64-S128"
target triple = "x86_64-pc-linux-gnu"

%class.outputStream = type { ptr, i32, i8, i32, i64, %class.TimeStamp, ptr, i64 }
%class.TimeStamp = type { i64 }
%class.defaultStream = type { %class.xmlTextStream, i8, ptr, i64, i64 }
%class.xmlTextStream = type { %class.outputStream, ptr }
%class.xmlStream = type { %class.outputStream, ptr, i64, i32, ptr, %class.xmlTextStream }

@_ZTV12outputStream = linkonce_odr hidden unnamed_addr constant { [7 x ptr] } { [7 x ptr] [ptr null, ptr null, ptr @_ZN12outputStream5flushEv, ptr @__cxa_pure_virtual, ptr @_ZN12outputStream10rotate_logEbPS_, ptr @_ZN12outputStreamD2Ev, ptr @_ZN12outputStreamD0Ev] }, comdat, align 8
@LogVMOutput = external global i8, align 1
@LogCompilation = external global i8, align 1
@LogFile = external global ptr, align 8
@.str.26 = private unnamed_addr constant [15 x i8] c"hotspot_%p.log\00", align 1
@DisplayVMOutput = external global i8, align 1
@_ZTV9xmlStream = external unnamed_addr constant { [9 x ptr] }, align 8
@_ZTV13xmlTextStream = external unnamed_addr constant { [7 x ptr] }, align 8

; Function Attrs: mustprogress nounwind uwtable
define linkonce_odr hidden void @_ZN9TimeStampC2Ev(ptr noundef nonnull align 8 dereferenceable(8) %0) unnamed_addr #1 comdat align 2 {
  %2 = alloca ptr, align 8
  store ptr %0, ptr %2, align 8
  %3 = load ptr, ptr %2, align 8
  %4 = getelementptr inbounds %class.TimeStamp, ptr %3, i32 0, i32 0
  store i64 0, ptr %4, align 8
  ret void
}

; Function Attrs: mustprogress nounwind uwtable
define linkonce_odr hidden void @_ZN13xmlTextStreamC2Ev(ptr noundef nonnull align 8 dereferenceable(64) %0) unnamed_addr #1 comdat align 2 {
  %2 = alloca ptr, align 8
  store ptr %0, ptr %2, align 8
  %3 = load ptr, ptr %2, align 8
  call void @_ZN12outputStreamC2Eb(ptr noundef nonnull align 8 dereferenceable(56) %3, i1 noundef zeroext false)
  store ptr getelementptr inbounds inrange(-16, 40) ({ [7 x ptr] }, ptr @_ZTV13xmlTextStream, i32 0, i32 0, i32 2), ptr %3, align 8
  %4 = getelementptr inbounds %class.xmlTextStream, ptr %3, i32 0, i32 1
  store ptr null, ptr %4, align 8
  ret void
}

; Function Attrs: mustprogress nounwind uwtable
define hidden void @_ZN12outputStreamC2Eb(ptr noundef nonnull align 8 dereferenceable(56) %0, i1 noundef zeroext %1) unnamed_addr #1 align 2 {
  %3 = alloca ptr, align 8
  %4 = alloca i8, align 1
  store ptr %0, ptr %3, align 8
  %5 = zext i1 %1 to i8
  store i8 %5, ptr %4, align 1
  %6 = load ptr, ptr %3, align 8
  store ptr getelementptr inbounds inrange(-16, 40) ({ [7 x ptr] }, ptr @_ZTV12outputStream, i32 0, i32 0, i32 2), ptr %6, align 8
  %7 = getelementptr inbounds %class.outputStream, ptr %6, i32 0, i32 5
  call void @_ZN9TimeStampC2Ev(ptr noundef nonnull align 8 dereferenceable(8) %7)
  %8 = getelementptr inbounds %class.outputStream, ptr %6, i32 0, i32 3
  store i32 0, ptr %8, align 8
  %9 = getelementptr inbounds %class.outputStream, ptr %6, i32 0, i32 4
  store i64 0, ptr %9, align 8
  %10 = getelementptr inbounds %class.outputStream, ptr %6, i32 0, i32 1
  store i32 0, ptr %10, align 8
  %11 = getelementptr inbounds %class.outputStream, ptr %6, i32 0, i32 2
  store i8 0, ptr %11, align 4
  %12 = getelementptr inbounds %class.outputStream, ptr %6, i32 0, i32 6
  store ptr null, ptr %12, align 8
  %13 = getelementptr inbounds %class.outputStream, ptr %6, i32 0, i32 7
  store i64 0, ptr %13, align 8
  %14 = load i8, ptr %4, align 1
  %15 = trunc i8 %14 to i1
  br i1 %15, label %16, label %18

16:                                               ; preds = %2
  %17 = getelementptr inbounds %class.outputStream, ptr %6, i32 0, i32 5
  call void @_ZN9TimeStamp6updateEv(ptr noundef nonnull align 8 dereferenceable(8) %17)
  br label %18

18:                                               ; preds = %16, %2
  ret void
}

; Function Attrs: mustprogress nounwind uwtable
define linkonce_odr hidden void @_ZN9xmlStreamC2EP12outputStream(ptr noundef nonnull align 8 dereferenceable(152) %0, ptr noundef %1) unnamed_addr #1 comdat align 2 {
  %3 = alloca ptr, align 8
  %4 = alloca ptr, align 8
  store ptr %0, ptr %3, align 8
  store ptr %1, ptr %4, align 8
  %5 = load ptr, ptr %3, align 8
  call void @_ZN12outputStreamC2Eb(ptr noundef nonnull align 8 dereferenceable(56) %5, i1 noundef zeroext false)
  store ptr getelementptr inbounds inrange(-16, 56) ({ [9 x ptr] }, ptr @_ZTV9xmlStream, i32 0, i32 0, i32 2), ptr %5, align 8
  %6 = getelementptr inbounds %class.xmlStream, ptr %5, i32 0, i32 5
  call void @_ZN13xmlTextStreamC2Ev(ptr noundef nonnull align 8 dereferenceable(64) %6)
  %7 = load ptr, ptr %4, align 8
  call void @_ZN9xmlStream10initializeEP12outputStream(ptr noundef nonnull align 8 dereferenceable(152) %5, ptr noundef %7)
  ret void
}

; Function Attrs: mustprogress nounwind uwtable
define hidden void @_ZN13defaultStream8init_logEv(ptr noundef nonnull align 8 dereferenceable(96) %0) #1 align 2 {
  %2 = alloca i64, align 8
  %3 = alloca i8, align 1
  %4 = alloca ptr, align 8
  %5 = alloca ptr, align 8
  %6 = alloca ptr, align 8
  store ptr %0, ptr %4, align 8
  %7 = load ptr, ptr %4, align 8
  %8 = load ptr, ptr @LogFile, align 8
  %9 = icmp ne ptr %8, null
  br i1 %9, label %10, label %12

10:                                               ; preds = %1
  %11 = load ptr, ptr @LogFile, align 8
  br label %13

12:                                               ; preds = %1
  br label %13

13:                                               ; preds = %12, %10
  %14 = phi ptr [ %11, %10 ], [ @.str.26, %12 ]
  store ptr %14, ptr %5, align 8
  %15 = load ptr, ptr %5, align 8
  %16 = call noundef ptr @_ZN13defaultStream9open_fileEPKc(ptr noundef nonnull align 8 dereferenceable(96) %7, ptr noundef %15)
  store ptr %16, ptr %6, align 8
  %17 = load ptr, ptr %6, align 8
  %18 = icmp ne ptr %17, null
  br i1 %18, label %19, label %27

19:                                               ; preds = %13
  %20 = load ptr, ptr %6, align 8
  %21 = getelementptr inbounds %class.defaultStream, ptr %7, i32 0, i32 2
  store ptr %20, ptr %21, align 8
  store i64 152, ptr %2, align 8
  store i8 9, ptr %3, align 1
  %22 = load i64, ptr %2, align 8
  %23 = load i8, ptr %3, align 1
  %24 = call noundef ptr @_Z12AllocateHeapm8MEMFLAGSN17AllocFailStrategy13AllocFailEnumE(i64 noundef %22, i8 noundef zeroext %23, i32 noundef 0) #6
  %25 = load ptr, ptr %6, align 8
  call void @_ZN9xmlStreamC2EP12outputStream(ptr noundef nonnull align 8 dereferenceable(152) %24, ptr noundef %25)
  %26 = getelementptr inbounds %class.xmlTextStream, ptr %7, i32 0, i32 1
  store ptr %24, ptr %26, align 8
  call void @_ZN13defaultStream9start_logEv(ptr noundef nonnull align 8 dereferenceable(96) %7)
  br label %28

27:                                               ; preds = %13
  store i8 0, ptr @LogVMOutput, align 1
  store i8 1, ptr @DisplayVMOutput, align 1
  store i8 0, ptr @LogCompilation, align 1
  br label %28

28:                                               ; preds = %27, %19
  ret void
}

; Function Attrs: mustprogress nounwind uwtable
define hidden void @_ZN13defaultStream4initEv(ptr noundef nonnull align 8 dereferenceable(96) %0) #1 align 2 {
  %2 = alloca ptr, align 8
  store ptr %0, ptr %2, align 8
  %3 = load ptr, ptr %2, align 8
  %4 = getelementptr inbounds %class.defaultStream, ptr %3, i32 0, i32 1
  store i8 1, ptr %4, align 8
  %5 = load i8, ptr @LogVMOutput, align 1
  %6 = trunc i8 %5 to i1
  br i1 %6, label %10, label %7

7:                                                ; preds = %1
  %8 = load i8, ptr @LogCompilation, align 1
  %9 = trunc i8 %8 to i1
  br i1 %9, label %10, label %11

10:                                               ; preds = %7, %1
  call void @_ZN13defaultStream8init_logEv(ptr noundef nonnull align 8 dereferenceable(96) %3)
  br label %11

11:                                               ; preds = %10, %7
  ret void
}