; Function Attrs: mustprogress nounwind uwtable
define hidden void @_ZN13defaultStream4initEv(ptr noundef nonnull align 8 dereferenceable(96) %0) local_unnamed_addr #0 align 2 {
  %2 = getelementptr inbounds i8, ptr %0, i64 64
  store i8 1, ptr %2, align 8
  %3 = load i8, ptr @LogVMOutput, align 1
  %4 = trunc i8 %3 to i1
  br i1 %4, label %8, label %5

5:                                                ; preds = %1
  %6 = load i8, ptr @LogCompilation, align 1
  %7 = trunc i8 %6 to i1
  br i1 %7, label %8, label %_ZN13defaultStream8init_logEv.exit

8:                                                ; preds = %5, %1
  %9 = load ptr, ptr @LogFile, align 8
  %.not.i = icmp eq ptr %9, null
  %10 = select i1 %.not.i, ptr @.str.26, ptr %9
  %11 = tail call noundef ptr @_ZN13defaultStream9open_fileEPKc(ptr nonnull align 8 poison, ptr noundef nonnull %10)
  %.not6.i = icmp eq ptr %11, null
  br i1 %.not6.i, label %26, label %12

12:                                               ; preds = %8
  %13 = getelementptr inbounds i8, ptr %0, i64 72
  store ptr %11, ptr %13, align 8
  %14 = tail call noundef ptr @_Z12AllocateHeapm8MEMFLAGSN17AllocFailStrategy13AllocFailEnumE(i64 noundef 152, i8 noundef zeroext 9, i32 noundef 0) #21
  %15 = getelementptr inbounds i8, ptr %14, i64 16
  store i32 0, ptr %15, align 8
  %16 = getelementptr inbounds i8, ptr %14, i64 24
  %17 = getelementptr inbounds i8, ptr %14, i64 8
  store i32 0, ptr %17, align 8
  %18 = getelementptr inbounds i8, ptr %14, i64 12
  store i8 0, ptr %18, align 4
  tail call void @llvm.memset.p0.i64(ptr noundef nonnull align 8 dereferenceable(32) %16, i8 0, i64 32, i1 false)
  store ptr getelementptr inbounds inrange(-16, 56) (i8, ptr @_ZTV9xmlStream, i64 16), ptr %14, align 8
  %19 = getelementptr inbounds i8, ptr %14, i64 88
  %20 = getelementptr inbounds i8, ptr %14, i64 104
  store i32 0, ptr %20, align 8
  %21 = getelementptr inbounds i8, ptr %14, i64 112
  %22 = getelementptr inbounds i8, ptr %14, i64 96
  store i32 0, ptr %22, align 8
  %23 = getelementptr inbounds i8, ptr %14, i64 100
  store i8 0, ptr %23, align 4
  tail call void @llvm.memset.p0.i64(ptr noundef nonnull align 8 dereferenceable(32) %21, i8 0, i64 32, i1 false)
  store ptr getelementptr inbounds inrange(-16, 40) (i8, ptr @_ZTV13xmlTextStream, i64 16), ptr %19, align 8
  %24 = getelementptr inbounds i8, ptr %14, i64 144
  store ptr null, ptr %24, align 8
  tail call void @_ZN9xmlStream10initializeEP12outputStream(ptr noundef nonnull align 8 dereferenceable(152) %14, ptr noundef nonnull %11) #21
  %25 = getelementptr inbounds i8, ptr %0, i64 56
  store ptr %14, ptr %25, align 8
  tail call void @_ZN13defaultStream9start_logEv(ptr noundef nonnull align 8 dereferenceable(96) %0)
  br label %_ZN13defaultStream8init_logEv.exit

26:                                               ; preds = %8
  store i8 0, ptr @LogVMOutput, align 1
  store i8 1, ptr @DisplayVMOutput, align 1
  store i8 0, ptr @LogCompilation, align 1
  br label %_ZN13defaultStream8init_logEv.exit

_ZN13defaultStream8init_logEv.exit:               ; preds = %26, %12, %5
  ret void
}